Certificate:
    Data:
        Version: 3 (0x2)
        Serial Number: 1 (0x1)
        Signature Algorithm: sha256WithRSAEncryption
        Issuer: CN=ca.localdomain, C=FR, ST=BdR, L=Aix, O=fD, OU=Tests
        Validity
            Not Before: Dec 30 06:54:18 2020 GMT
            Not After : Dec 30 06:54:18 2021 GMT
        Subject: C=FR, ST=BdR, O=fD, OU=Tests, CN=peer1.localdomain
        Subject Public Key Info:
            Public Key Algorithm: rsaEncryption
                RSA Public-Key: (1024 bit)
                Modulus:
                    00:a8:29:d2:d5:e9:2c:2c:b2:ad:7b:50:00:58:fd:
                    76:38:58:17:e2:24:eb:cd:49:55:7c:d1:a7:a8:0e:
                    38:16:4c:e9:2b:6b:d4:f1:24:f8:33:32:74:bc:4c:
                    3e:81:51:a0:3b:06:29:ee:be:09:1d:34:3b:8b:16:
                    a6:55:41:83:22:90:1b:4c:8c:71:1c:f3:20:b8:64:
                    ee:36:87:e5:18:1f:7e:8d:52:2b:df:a1:8c:18:f7:
                    fe:10:50:6e:42:c1:f1:a2:c7:50:99:50:79:a0:4c:
                    eb:85:53:53:38:eb:aa:e7:3a:4c:d4:18:65:e1:15:
                    50:66:0b:1c:53:e5:9a:77:ef
                Exponent: 65537 (0x10001)
        X509v3 extensions:
            X509v3 Basic Constraints: 
                CA:FALSE
            Netscape Comment: 
                OpenSSL Generated Certificate
            X509v3 Subject Key Identifier: 
                34:E5:EF:EC:74:49:11:28:E9:43:E0:E3:4B:B0:1F:C5:C3:C8:50:3C
            X509v3 Authority Key Identifier: 
                keyid:EA:54:AA:7F:1F:DD:EC:1E:2C:0F:1E:7E:15:50:EA:87:BF:AE:89:AB

    Signature Algorithm: sha256WithRSAEncryption
         51:f5:5f:0f:29:a0:f1:ad:3c:09:2e:e9:3f:f4:6e:4d:19:76:
         58:d5:dc:6e:be:fa:69:26:47:63:24:9b:25:d1:4b:86:dd:3a:
         1f:d7:dc:7a:ed:94:ea:c5:d4:6f:39:f5:8e:a4:fa:96:80:38:
         5a:7b:b9:91:e0:66:5b:08:fd:19:2e:00:7c:ee:a0:14:56:79:
         d9:a8:8d:a5:c0:c6:58:af:78:3c:16:fe:58:a0:61:c5:41:c4:
         3b:36:a5:19:40:41:7d:34:d8:d1:5d:93:e6:32:1e:6f:2f:c4:
         ae:ad:7b:03:2f:fc:0f:e3:4d:7e:b1:f1:2e:1b:38:3f:ef:da:
         71:cc
-----BEGIN CERTIFICATE-----
MIICpDCCAg2gAwIBAgIBATANBgkqhkiG9w0BAQsFADBfMRcwFQYDVQQDDA5jYS5s
b2NhbGRvbWFpbjELMAkGA1UEBhMCRlIxDDAKBgNVBAgMA0JkUjEMMAoGA1UEBwwD
QWl4MQswCQYDVQQKDAJmRDEOMAwGA1UECwwFVGVzdHMwHhcNMjAxMjMwMDY1NDE4
WhcNMjExMjMwMDY1NDE4WjBUMQswCQYDVQQGEwJGUjEMMAoGA1UECAwDQmRSMQsw
CQYDVQQKDAJmRDEOMAwGA1UECwwFVGVzdHMxGjAYBgNVBAMMEXBlZXIxLmxvY2Fs
ZG9tYWluMIGfMA0GCSqGSIb3DQEBAQUAA4GNADCBiQKBgQCoKdLV6Swssq17UABY
/XY4WBfiJOvNSVV80aeoDjgWTOkra9TxJPgzMnS8TD6BUaA7BinuvgkdNDuLFqZV
QYMikBtMjHEc8yC4ZO42h+UYH36NUivfoYwY9/4QUG5CwfGix1CZUHmgTOuFU1M4
66rnOkzUGGXhFVBmCxxT5Zp37wIDAQABo3sweTAJBgNVHRMEAjAAMCwGCWCGSAGG
+EIBDQQfFh1PcGVuU1NMIEdlbmVyYXRlZCBDZXJ0aWZpY2F0ZTAdBgNVHQ4EFgQU
NOXv7HRJESjpQ+DjS7AfxcPIUDwwHwYDVR0jBBgwFoAU6lSqfx/d7B4sDx5+FVDq
h7+uiaswDQYJKoZIhvcNAQELBQADgYEAUfVfDymg8a08CS7pP/RuTRl2WNXcbr76
aSZHYySbJdFLht06H9fceu2U6sXUbzn1jqT6loA4Wnu5keBmWwj9GS4AfO6gFFZ5
2aiNpcDGWK94PBb+WKBhxUHEOzalGUBBfTTY0V2T5jIeby/Erq17Ay/8D+NNfrHx
Lhs4P+/accw=
-----END CERTIFICATE-----
