Certificate:
    Data:
        Version: 3 (0x2)
        Serial Number: 2 (0x2)
        Signature Algorithm: sha256WithRSAEncryption
        Issuer: CN=ca.localdomain, C=FR, ST=BdR, L=Aix, O=fD, OU=Tests
        Validity
            Not Before: Dec 30 06:54:18 2020 GMT
            Not After : Dec 30 06:54:18 2021 GMT
        Subject: C=FR, ST=BdR, O=fD, OU=Tests, CN=peer2.localdomain
        Subject Public Key Info:
            Public Key Algorithm: rsaEncryption
                RSA Public-Key: (1024 bit)
                Modulus:
                    00:c2:5c:c8:3a:e8:fc:96:61:0b:12:b9:5f:7a:77:
                    73:29:0c:c5:34:83:72:02:de:af:25:c8:0b:06:7f:
                    97:61:a6:e9:2b:fd:f8:80:71:cd:f5:78:6e:63:ef:
                    83:65:dc:4b:73:a8:93:1a:de:5d:cf:70:eb:1d:20:
                    a0:63:b6:77:0c:48:69:05:f0:b3:21:c8:f8:61:39:
                    3b:3f:f5:12:5c:fa:a2:16:6b:99:ff:e7:9a:6f:72:
                    0c:c7:0b:68:74:46:69:6a:f0:cf:db:c8:fa:00:f2:
                    f4:88:c5:d1:4f:90:04:21:09:ea:a0:7a:27:e5:89:
                    ab:7a:6c:63:7e:ec:41:73:81
                Exponent: 65537 (0x10001)
        X509v3 extensions:
            X509v3 Basic Constraints: 
                CA:FALSE
            Netscape Comment: 
                OpenSSL Generated Certificate
            X509v3 Subject Key Identifier: 
                F1:09:6D:B8:BB:3A:04:F6:13:7F:7C:D2:46:BC:5A:16:20:CA:87:F2
            X509v3 Authority Key Identifier: 
                keyid:EA:54:AA:7F:1F:DD:EC:1E:2C:0F:1E:7E:15:50:EA:87:BF:AE:89:AB

    Signature Algorithm: sha256WithRSAEncryption
         3e:8c:3e:6e:10:8b:03:d6:07:94:cd:a6:0c:f6:77:7a:93:fd:
         75:dc:e5:01:5c:9a:34:4a:93:6b:8b:6d:af:d5:08:1a:ad:b3:
         52:52:c1:92:95:67:b3:19:47:15:c0:09:a2:b5:a3:10:9d:0a:
         fb:e0:f0:4b:c8:f7:9a:11:2c:37:ed:50:52:58:a3:af:70:09:
         41:84:bb:65:e2:6e:62:ce:8e:54:56:15:03:0d:40:2c:41:c0:
         b9:20:a5:ea:7f:6a:b1:15:f7:79:05:57:94:2f:65:4f:e4:d1:
         d5:5a:36:8a:d7:41:54:1a:4a:33:63:93:18:c8:0e:ee:ed:57:
         84:d0
-----BEGIN CERTIFICATE-----
MIICpDCCAg2gAwIBAgIBAjANBgkqhkiG9w0BAQsFADBfMRcwFQYDVQQDDA5jYS5s
b2NhbGRvbWFpbjELMAkGA1UEBhMCRlIxDDAKBgNVBAgMA0JkUjEMMAoGA1UEBwwD
QWl4MQswCQYDVQQKDAJmRDEOMAwGA1UECwwFVGVzdHMwHhcNMjAxMjMwMDY1NDE4
WhcNMjExMjMwMDY1NDE4WjBUMQswCQYDVQQGEwJGUjEMMAoGA1UECAwDQmRSMQsw
CQYDVQQKDAJmRDEOMAwGA1UECwwFVGVzdHMxGjAYBgNVBAMMEXBlZXIyLmxvY2Fs
ZG9tYWluMIGfMA0GCSqGSIb3DQEBAQUAA4GNADCBiQKBgQDCXMg66PyWYQsSuV96
d3MpDMU0g3IC3q8lyAsGf5dhpukr/fiAcc31eG5j74Nl3EtzqJMa3l3PcOsdIKBj
tncMSGkF8LMhyPhhOTs/9RJc+qIWa5n/55pvcgzHC2h0Rmlq8M/byPoA8vSIxdFP
kAQhCeqgeifliat6bGN+7EFzgQIDAQABo3sweTAJBgNVHRMEAjAAMCwGCWCGSAGG
+EIBDQQfFh1PcGVuU1NMIEdlbmVyYXRlZCBDZXJ0aWZpY2F0ZTAdBgNVHQ4EFgQU
8QltuLs6BPYTf3zSRrxaFiDKh/IwHwYDVR0jBBgwFoAU6lSqfx/d7B4sDx5+FVDq
h7+uiaswDQYJKoZIhvcNAQELBQADgYEAPow+bhCLA9YHlM2mDPZ3epP9ddzlAVya
NEqTa4ttr9UIGq2zUlLBkpVnsxlHFcAJorWjEJ0K++DwS8j3mhEsN+1QUlijr3AJ
QYS7ZeJuYs6OVFYVAw1ALEHAuSCl6n9qsRX3eQVXlC9lT+TR1Vo2itdBVBpKM2OT
GMgO7u1XhNA=
-----END CERTIFICATE-----
